target datalayout = "e-m:e-p270:32:32-p271:32:32-p272:64:64-i64:64-i128:128-f80:128-n8:16:32:64-S128"
target triple = "x86_64-pc-linux-gnu"

%"struct.net::QuicMultipathSentPacketManager::PathSentPacketManagerInfo" = type <{ ptr, i32, [4 x i8] }>
%"class.net::QuicMultipathSentPacketManager" = type { %"class.net::QuicSentPacketManagerInterface", %"class.std::vector", ptr }
%"class.net::QuicSentPacketManagerInterface" = type { ptr }
%"class.std::vector" = type { %"struct.std::_Vector_base" }
%"struct.std::_Vector_base" = type { %"struct.std::_Vector_base<net::QuicMultipathSentPacketManager::PathSentPacketManagerInfo, std::allocator<net::QuicMultipathSentPacketManager::PathSentPacketManagerInfo>>::_Vector_impl" }
%"struct.std::_Vector_base<net::QuicMultipathSentPacketManager::PathSentPacketManagerInfo, std::allocator<net::QuicMultipathSentPacketManager::PathSentPacketManagerInfo>>::_Vector_impl" = type { %"struct.std::_Vector_base<net::QuicMultipathSentPacketManager::PathSentPacketManagerInfo, std::allocator<net::QuicMultipathSentPacketManager::PathSentPacketManagerInfo>>::_Vector_impl_data" }
%"struct.std::_Vector_base<net::QuicMultipathSentPacketManager::PathSentPacketManagerInfo, std::allocator<net::QuicMultipathSentPacketManager::PathSentPacketManagerInfo>>::_Vector_impl_data" = type { ptr, ptr, ptr }
%"class.logging::LogMessage" = type <{ i32, [4 x i8], %"class.std::__cxx11::basic_ostringstream", i64, ptr, i32, [4 x i8] }>
%"class.std::__cxx11::basic_ostringstream" = type { %"class.std::basic_ostream.base", %"class.std::__cxx11::basic_stringbuf", %"class.std::basic_ios" }
%"class.std::basic_ostream.base" = type { ptr }
%"class.std::__cxx11::basic_stringbuf" = type { %"class.std::basic_streambuf", i32, %"class.std::__cxx11::basic_string" }
%"class.std::basic_streambuf" = type { ptr, ptr, ptr, ptr, ptr, ptr, ptr, %"class.std::locale" }
%"class.std::locale" = type { ptr }
%"class.std::__cxx11::basic_string" = type { %"struct.std::__cxx11::basic_string<char>::_Alloc_hider", i64, %union.anon }
%"struct.std::__cxx11::basic_string<char>::_Alloc_hider" = type { ptr }
%union.anon = type { i64, [8 x i8] }
%"class.std::basic_ios" = type { %"class.std::ios_base", ptr, i8, i8, ptr, ptr, ptr, ptr }
%"class.std::ios_base" = type { ptr, i64, i64, i32, i32, i32, ptr, %"struct.std::ios_base::_Words", [8 x %"struct.std::ios_base::_Words"], i32, ptr, %"class.std::locale" }
%"struct.std::ios_base::_Words" = type { ptr, i64 }
%"class.__gnu_cxx::__normal_iterator.23" = type { ptr }
%"class.logging::CheckOpResult" = type { ptr }

@.str = private unnamed_addr constant [149 x i8] c"generated/home/dtcxzyw/WorkSpace/Projects/compilers/llvm-opt-benchmark/bench/libquic/libquic/src/net/quic/core/quic_multipath_sent_packet_manager.cc\00", align 1
@_ZN3net30QuicMultipathSentPacketManager25PathSentPacketManagerInfoC1ERKS1_ = unnamed_addr alias void (ptr, ptr), ptr @_ZN3net30QuicMultipathSentPacketManager25PathSentPacketManagerInfoC2ERKS1_

; Function Attrs: mustprogress nounwind uwtable
define linkonce_odr noundef nonnull align 8 dereferenceable(8) ptr @_ZNK9__gnu_cxx17__normal_iteratorIPKN3net30QuicMultipathSentPacketManager25PathSentPacketManagerInfoESt6vectorIS3_SaIS3_EEE4baseEv(ptr noundef nonnull align 8 dereferenceable(8) %0) #2 comdat align 2 {
  %2 = alloca ptr, align 8
  store ptr %0, ptr %2, align 8, !tbaa !93
  %3 = load ptr, ptr %2, align 8
  %4 = getelementptr inbounds nuw %"class.__gnu_cxx::__normal_iterator.23", ptr %3, i32 0, i32 0
  ret ptr %4
}

; Function Attrs: mustprogress nounwind uwtable
define linkonce_odr void @_ZN9__gnu_cxx17__normal_iteratorIPKN3net30QuicMultipathSentPacketManager25PathSentPacketManagerInfoESt6vectorIS3_SaIS3_EEEC2ERKS5_(ptr noundef nonnull align 8 dereferenceable(8) %0, ptr noundef nonnull align 8 dereferenceable(8) %1) unnamed_addr #2 comdat align 2 {
  %3 = alloca ptr, align 8
  %4 = alloca ptr, align 8
  store ptr %0, ptr %3, align 8, !tbaa !93
  store ptr %1, ptr %4, align 8, !tbaa !193
  %5 = load ptr, ptr %3, align 8
  %6 = getelementptr inbounds nuw %"class.__gnu_cxx::__normal_iterator.23", ptr %5, i32 0, i32 0
  %7 = load ptr, ptr %4, align 8, !tbaa !193
  %8 = load ptr, ptr %7, align 8, !tbaa !24
  store ptr %8, ptr %6, align 8, !tbaa !95
  ret void
}

; Function Attrs: mustprogress nounwind uwtable
define linkonce_odr noundef nonnull align 8 dereferenceable(8) ptr @_ZN7logging10LogMessage6streamEv(ptr noundef nonnull align 8 dereferenceable(404) %0) #2 comdat align 2 {
  %2 = alloca ptr, align 8
  store ptr %0, ptr %2, align 8, !tbaa !123
  %3 = load ptr, ptr %2, align 8
  %4 = getelementptr inbounds nuw %"class.logging::LogMessage", ptr %3, i32 0, i32 2
  ret ptr %4
}

; Function Attrs: mustprogress nounwind uwtable
define linkonce_odr noundef ptr @_ZN7logging13CheckOpResult7messageB5cxx11Ev(ptr noundef nonnull align 8 dereferenceable(8) %0) #2 comdat align 2 {
  %2 = alloca ptr, align 8
  store ptr %0, ptr %2, align 8, !tbaa !117
  %3 = load ptr, ptr %2, align 8
  %4 = getelementptr inbounds nuw %"class.logging::CheckOpResult", ptr %3, i32 0, i32 0
  %5 = load ptr, ptr %4, align 8, !tbaa !121
  ret ptr %5
}

; Function Attrs: mustprogress nounwind uwtable
define linkonce_odr noundef zeroext i1 @_ZNK7logging13CheckOpResultcvbEv(ptr noundef nonnull align 8 dereferenceable(8) %0) #2 comdat align 2 {
  %2 = alloca ptr, align 8
  store ptr %0, ptr %2, align 8, !tbaa !117
  %3 = load ptr, ptr %2, align 8
  %4 = getelementptr inbounds nuw %"class.logging::CheckOpResult", ptr %3, i32 0, i32 0
  %5 = load ptr, ptr %4, align 8, !tbaa !121
  %6 = icmp ne ptr %5, null
  %7 = xor i1 %6, true
  ret i1 %7
}

; Function Attrs: mustprogress nounwind uwtable
define linkonce_odr void @_ZN7logging13CheckOpResultC2EPNSt7__cxx1112basic_stringIcSt11char_traitsIcESaIcEEE(ptr noundef nonnull align 8 dereferenceable(8) %0, ptr noundef %1) unnamed_addr #2 comdat align 2 {
  %3 = alloca ptr, align 8
  %4 = alloca ptr, align 8
  store ptr %0, ptr %3, align 8, !tbaa !117
  store ptr %1, ptr %4, align 8, !tbaa !119
  %5 = load ptr, ptr %3, align 8
  %6 = getelementptr inbounds nuw %"class.logging::CheckOpResult", ptr %5, i32 0, i32 0
  %7 = load ptr, ptr %4, align 8, !tbaa !119
  store ptr %7, ptr %6, align 8, !tbaa !121
  ret void
}

; Function Attrs: mustprogress nounwind uwtable
define linkonce_odr noundef nonnull align 8 dereferenceable(8) ptr @_ZN9__gnu_cxx17__normal_iteratorIPKN3net30QuicMultipathSentPacketManager25PathSentPacketManagerInfoESt6vectorIS3_SaIS3_EEEppEv(ptr noundef nonnull align 8 dereferenceable(8) %0) #2 comdat align 2 {
  %2 = alloca ptr, align 8
  store ptr %0, ptr %2, align 8, !tbaa !93
  %3 = load ptr, ptr %2, align 8
  %4 = getelementptr inbounds nuw %"class.__gnu_cxx::__normal_iterator.23", ptr %3, i32 0, i32 0
  %5 = load ptr, ptr %4, align 8, !tbaa !95
  %6 = getelementptr inbounds nuw %"struct.net::QuicMultipathSentPacketManager::PathSentPacketManagerInfo", ptr %5, i32 1
  store ptr %6, ptr %4, align 8, !tbaa !95
  ret ptr %3
}

; Function Attrs: inlinehint mustprogress nounwind uwtable
define linkonce_odr noundef nonnull align 8 dereferenceable(8) ptr @_ZSt3maxImERKT_S2_S2_(ptr noundef nonnull align 8 dereferenceable(8) %0, ptr noundef nonnull align 8 dereferenceable(8) %1) #1 comdat {
  %3 = alloca ptr, align 8
  %4 = alloca ptr, align 8
  %5 = alloca ptr, align 8
  store ptr %0, ptr %4, align 8, !tbaa !135
  store ptr %1, ptr %5, align 8, !tbaa !135
  %6 = load ptr, ptr %4, align 8, !tbaa !135
  %7 = load i64, ptr %6, align 8, !tbaa !44
  %8 = load ptr, ptr %5, align 8, !tbaa !135
  %9 = load i64, ptr %8, align 8, !tbaa !44
  %10 = icmp ult i64 %7, %9
  br i1 %10, label %11, label %13

11:                                               ; preds = %2
  %12 = load ptr, ptr %5, align 8, !tbaa !135
  store ptr %12, ptr %3, align 8
  br label %15

13:                                               ; preds = %2
  %14 = load ptr, ptr %4, align 8, !tbaa !135
  store ptr %14, ptr %3, align 8
  br label %15

15:                                               ; preds = %13, %11
  %16 = load ptr, ptr %3, align 8
  ret ptr %16
}

; Function Attrs: mustprogress nounwind uwtable
define linkonce_odr noundef nonnull align 8 dereferenceable(12) ptr @_ZNK9__gnu_cxx17__normal_iteratorIPKN3net30QuicMultipathSentPacketManager25PathSentPacketManagerInfoESt6vectorIS3_SaIS3_EEEdeEv(ptr noundef nonnull align 8 dereferenceable(8) %0) #2 comdat align 2 {
  %2 = alloca ptr, align 8
  store ptr %0, ptr %2, align 8, !tbaa !93
  %3 = load ptr, ptr %2, align 8
  %4 = getelementptr inbounds nuw %"class.__gnu_cxx::__normal_iterator.23", ptr %3, i32 0, i32 0
  %5 = load ptr, ptr %4, align 8, !tbaa !95
  ret ptr %5
}

; Function Attrs: inlinehint mustprogress nounwind uwtable
define linkonce_odr noundef zeroext i1 @_ZN9__gnu_cxxneIPKN3net30QuicMultipathSentPacketManager25PathSentPacketManagerInfoESt6vectorIS3_SaIS3_EEEEbRKNS_17__normal_iteratorIT_T0_EESE_(ptr noundef nonnull align 8 dereferenceable(8) %0, ptr noundef nonnull align 8 dereferenceable(8) %1) #1 comdat {
  %3 = alloca ptr, align 8
  %4 = alloca ptr, align 8
  store ptr %0, ptr %3, align 8, !tbaa !93
  store ptr %1, ptr %4, align 8, !tbaa !93
  %5 = load ptr, ptr %3, align 8, !tbaa !93
  %6 = call noundef nonnull align 8 dereferenceable(8) ptr @_ZNK9__gnu_cxx17__normal_iteratorIPKN3net30QuicMultipathSentPacketManager25PathSentPacketManagerInfoESt6vectorIS3_SaIS3_EEE4baseEv(ptr noundef nonnull align 8 dereferenceable(8) %5) #15
  %7 = load ptr, ptr %6, align 8, !tbaa !24
  %8 = load ptr, ptr %4, align 8, !tbaa !93
  %9 = call noundef nonnull align 8 dereferenceable(8) ptr @_ZNK9__gnu_cxx17__normal_iteratorIPKN3net30QuicMultipathSentPacketManager25PathSentPacketManagerInfoESt6vectorIS3_SaIS3_EEE4baseEv(ptr noundef nonnull align 8 dereferenceable(8) %8) #15
  %10 = load ptr, ptr %9, align 8, !tbaa !24
  %11 = icmp ne ptr %7, %10
  ret i1 %11
}

; Function Attrs: mustprogress nounwind uwtable
define linkonce_odr ptr @_ZNKSt6vectorIN3net30QuicMultipathSentPacketManager25PathSentPacketManagerInfoESaIS2_EE3endEv(ptr noundef nonnull align 8 dereferenceable(24) %0) #2 comdat align 2 {
  %2 = alloca %"class.__gnu_cxx::__normal_iterator.23", align 8
  %3 = alloca ptr, align 8
  store ptr %0, ptr %3, align 8, !tbaa !22
  %4 = load ptr, ptr %3, align 8
  %5 = getelementptr inbounds nuw %"struct.std::_Vector_base", ptr %4, i32 0, i32 0
  %6 = getelementptr inbounds nuw %"struct.std::_Vector_base<net::QuicMultipathSentPacketManager::PathSentPacketManagerInfo, std::allocator<net::QuicMultipathSentPacketManager::PathSentPacketManagerInfo>>::_Vector_impl_data", ptr %5, i32 0, i32 1
  call void @_ZN9__gnu_cxx17__normal_iteratorIPKN3net30QuicMultipathSentPacketManager25PathSentPacketManagerInfoESt6vectorIS3_SaIS3_EEEC2ERKS5_(ptr noundef nonnull align 8 dereferenceable(8) %2, ptr noundef nonnull align 8 dereferenceable(8) %6) #15
  %7 = getelementptr inbounds nuw %"class.__gnu_cxx::__normal_iterator.23", ptr %2, i32 0, i32 0
  %8 = load ptr, ptr %7, align 8
  ret ptr %8
}

; Function Attrs: mustprogress nounwind uwtable
define linkonce_odr ptr @_ZNKSt6vectorIN3net30QuicMultipathSentPacketManager25PathSentPacketManagerInfoESaIS2_EE5beginEv(ptr noundef nonnull align 8 dereferenceable(24) %0) #2 comdat align 2 {
  %2 = alloca %"class.__gnu_cxx::__normal_iterator.23", align 8
  %3 = alloca ptr, align 8
  store ptr %0, ptr %3, align 8, !tbaa !22
  %4 = load ptr, ptr %3, align 8
  %5 = getelementptr inbounds nuw %"struct.std::_Vector_base", ptr %4, i32 0, i32 0
  %6 = getelementptr inbounds nuw %"struct.std::_Vector_base<net::QuicMultipathSentPacketManager::PathSentPacketManagerInfo, std::allocator<net::QuicMultipathSentPacketManager::PathSentPacketManagerInfo>>::_Vector_impl_data", ptr %5, i32 0, i32 0
  call void @_ZN9__gnu_cxx17__normal_iteratorIPKN3net30QuicMultipathSentPacketManager25PathSentPacketManagerInfoESt6vectorIS3_SaIS3_EEEC2ERKS5_(ptr noundef nonnull align 8 dereferenceable(8) %2, ptr noundef nonnull align 8 dereferenceable(8) %6) #15
  %7 = getelementptr inbounds nuw %"class.__gnu_cxx::__normal_iterator.23", ptr %2, i32 0, i32 0
  %8 = load ptr, ptr %7, align 8
  ret ptr %8
}

; Function Attrs: mustprogress uwtable
define noundef i64 @_ZNK3net30QuicMultipathSentPacketManager26EstimateMaxPacketsInFlightEm(ptr noundef nonnull align 8 dereferenceable(40) %0, i64 noundef %1) unnamed_addr #0 align 2 personality ptr @__gxx_personality_v0 {
  %3 = alloca ptr, align 8
  %4 = alloca i64, align 8
  %5 = alloca i64, align 8
  %6 = alloca ptr, align 8
  %7 = alloca %"class.__gnu_cxx::__normal_iterator.23", align 8
  %8 = alloca %"class.__gnu_cxx::__normal_iterator.23", align 8
  %9 = alloca %"struct.net::QuicMultipathSentPacketManager::PathSentPacketManagerInfo", align 8
  %10 = alloca i64, align 8
  %11 = alloca %"class.logging::CheckOpResult", align 8
  %12 = alloca %"class.logging::LogMessage", align 8
  %13 = alloca ptr, align 8
  %14 = alloca i32, align 4
  store ptr %0, ptr %3, align 8, !tbaa !3
  store i64 %1, ptr %4, align 8, !tbaa !44
  %15 = load ptr, ptr %3, align 8
  call void @llvm.lifetime.start.p0(i64 8, ptr %5) #15
  store i64 0, ptr %5, align 8, !tbaa !44
  call void @llvm.lifetime.start.p0(i64 8, ptr %6) #15
  %16 = getelementptr inbounds nuw %"class.net::QuicMultipathSentPacketManager", ptr %15, i32 0, i32 1
  store ptr %16, ptr %6, align 8, !tbaa !22
  call void @llvm.lifetime.start.p0(i64 8, ptr %7) #15
  %17 = load ptr, ptr %6, align 8, !tbaa !22
  %18 = call ptr @_ZNKSt6vectorIN3net30QuicMultipathSentPacketManager25PathSentPacketManagerInfoESaIS2_EE5beginEv(ptr noundef nonnull align 8 dereferenceable(24) %17) #15
  %19 = getelementptr inbounds nuw %"class.__gnu_cxx::__normal_iterator.23", ptr %7, i32 0, i32 0
  store ptr %18, ptr %19, align 8
  call void @llvm.lifetime.start.p0(i64 8, ptr %8) #15
  %20 = load ptr, ptr %6, align 8, !tbaa !22
  %21 = call ptr @_ZNKSt6vectorIN3net30QuicMultipathSentPacketManager25PathSentPacketManagerInfoESaIS2_EE3endEv(ptr noundef nonnull align 8 dereferenceable(24) %20) #15
  %22 = getelementptr inbounds nuw %"class.__gnu_cxx::__normal_iterator.23", ptr %8, i32 0, i32 0
  store ptr %21, ptr %22, align 8
  br label %23

23:                                               ; preds = %42, %2
  %24 = call noundef zeroext i1 @_ZN9__gnu_cxxneIPKN3net30QuicMultipathSentPacketManager25PathSentPacketManagerInfoESt6vectorIS3_SaIS3_EEEEbRKNS_17__normal_iteratorIT_T0_EESE_(ptr noundef nonnull align 8 dereferenceable(8) %7, ptr noundef nonnull align 8 dereferenceable(8) %8) #15
  br i1 %24, label %26, label %25

25:                                               ; preds = %23
  call void @llvm.lifetime.end.p0(i64 8, ptr %8) #15
  call void @llvm.lifetime.end.p0(i64 8, ptr %7) #15
  call void @llvm.lifetime.end.p0(i64 8, ptr %6) #15
  br label %44

26:                                               ; preds = %23
  call void @llvm.lifetime.start.p0(i64 16, ptr %9) #15
  %27 = call noundef nonnull align 8 dereferenceable(12) ptr @_ZNK9__gnu_cxx17__normal_iteratorIPKN3net30QuicMultipathSentPacketManager25PathSentPacketManagerInfoESt6vectorIS3_SaIS3_EEEdeEv(ptr noundef nonnull align 8 dereferenceable(8) %7) #15
  call void @_ZN3net30QuicMultipathSentPacketManager25PathSentPacketManagerInfoC1ERKS1_(ptr noundef nonnull align 8 dereferenceable(12) %9, ptr noundef nonnull align 8 dereferenceable(12) %27)
  %28 = getelementptr inbounds nuw %"struct.net::QuicMultipathSentPacketManager::PathSentPacketManagerInfo", ptr %9, i32 0, i32 0
  %29 = load ptr, ptr %28, align 8, !tbaa !27
  %30 = icmp ne ptr %29, null
  br i1 %30, label %31, label %41

31:                                               ; preds = %26
  call void @llvm.lifetime.start.p0(i64 8, ptr %10) #15
  %32 = getelementptr inbounds nuw %"struct.net::QuicMultipathSentPacketManager::PathSentPacketManagerInfo", ptr %9, i32 0, i32 0
  %33 = load ptr, ptr %32, align 8, !tbaa !27
  %34 = load i64, ptr %4, align 8, !tbaa !44
  %35 = load ptr, ptr %33, align 8, !tbaa !12
  %36 = getelementptr inbounds ptr, ptr %35, i64 23
  %37 = load ptr, ptr %36, align 8
  %38 = call noundef i64 %37(ptr noundef nonnull align 8 dereferenceable(8) %33, i64 noundef %34)
  store i64 %38, ptr %10, align 8, !tbaa !44
  %39 = call noundef nonnull align 8 dereferenceable(8) ptr @_ZSt3maxImERKT_S2_S2_(ptr noundef nonnull align 8 dereferenceable(8) %5, ptr noundef nonnull align 8 dereferenceable(8) %10)
  %40 = load i64, ptr %39, align 8, !tbaa !44
  store i64 %40, ptr %5, align 8, !tbaa !44
  call void @llvm.lifetime.end.p0(i64 8, ptr %10) #15
  br label %41

41:                                               ; preds = %31, %26
  call void @llvm.lifetime.end.p0(i64 16, ptr %9) #15
  br label %42

42:                                               ; preds = %41
  %43 = call noundef nonnull align 8 dereferenceable(8) ptr @_ZN9__gnu_cxx17__normal_iteratorIPKN3net30QuicMultipathSentPacketManager25PathSentPacketManagerInfoESt6vectorIS3_SaIS3_EEEppEv(ptr noundef nonnull align 8 dereferenceable(8) %7) #15
  br label %23

44:                                               ; preds = %25
  call void @llvm.lifetime.start.p0(i64 8, ptr %11) #15
  call void @_ZN7logging13CheckOpResultC2EPNSt7__cxx1112basic_stringIcSt11char_traitsIcESaIcEEE(ptr noundef nonnull align 8 dereferenceable(8) %11, ptr noundef null)
  %45 = call noundef zeroext i1 @_ZNK7logging13CheckOpResultcvbEv(ptr noundef nonnull align 8 dereferenceable(8) %11)
  br i1 %45, label %46, label %47

46:                                               ; preds = %44
  br label %55

47:                                               ; preds = %44
  call void @llvm.lifetime.start.p0(i64 408, ptr %12) #15
  %48 = call noundef ptr @_ZN7logging13CheckOpResult7messageB5cxx11Ev(ptr noundef nonnull align 8 dereferenceable(8) %11)
  call void @_ZN7logging10LogMessageC1EPKciiPNSt7__cxx1112basic_stringIcSt11char_traitsIcESaIcEEE(ptr noundef nonnull align 8 dereferenceable(404) %12, ptr noundef @.str, i32 noundef 295, i32 noundef 0, ptr noundef %48)
  %49 = invoke noundef nonnull align 8 dereferenceable(8) ptr @_ZN7logging10LogMessage6streamEv(ptr noundef nonnull align 8 dereferenceable(404) %12)
          to label %50 unwind label %51

50:                                               ; preds = %47
  call void @_ZN7logging10LogMessageD1Ev(ptr noundef nonnull align 8 dereferenceable(404) %12) #15
  call void @llvm.lifetime.end.p0(i64 408, ptr %12) #15
  br label %55

51:                                               ; preds = %47
  %52 = landingpad { ptr, i32 }
          cleanup
  %53 = extractvalue { ptr, i32 } %52, 0
  store ptr %53, ptr %13, align 8
  %54 = extractvalue { ptr, i32 } %52, 1
  store i32 %54, ptr %14, align 4
  call void @_ZN7logging10LogMessageD1Ev(ptr noundef nonnull align 8 dereferenceable(404) %12) #15
  call void @llvm.lifetime.end.p0(i64 408, ptr %12) #15
  call void @llvm.lifetime.end.p0(i64 8, ptr %11) #15
  call void @llvm.lifetime.end.p0(i64 8, ptr %5) #15
  br label %57

55:                                               ; preds = %50, %46
  call void @llvm.lifetime.end.p0(i64 8, ptr %11) #15
  %56 = load i64, ptr %5, align 8, !tbaa !44
  call void @llvm.lifetime.end.p0(i64 8, ptr %5) #15
  ret i64 %56

57:                                               ; preds = %51
  %58 = load ptr, ptr %13, align 8
  %59 = load i32, ptr %14, align 4
  %60 = insertvalue { ptr, i32 } poison, ptr %58, 0
  %61 = insertvalue { ptr, i32 } %60, i32 %59, 1
  resume { ptr, i32 } %61
}