; Function Attrs: mustprogress uwtable
define noundef i64 @_ZNK3net30QuicMultipathSentPacketManager26EstimateMaxPacketsInFlightEm(ptr noundef nonnull readonly align 8 captures(none) dereferenceable(40) %0, i64 noundef %1) unnamed_addr #0 align 2 personality ptr @__gxx_personality_v0 {
  %3 = alloca %"struct.net::QuicMultipathSentPacketManager::PathSentPacketManagerInfo", align 8
  %4 = getelementptr inbounds nuw i8, ptr %0, i64 8
  %5 = load ptr, ptr %4, align 8, !tbaa !20
  %6 = getelementptr inbounds nuw i8, ptr %0, i64 16
  %7 = load ptr, ptr %6, align 8, !tbaa !20
  %.not1213 = icmp eq ptr %5, %7
  br i1 %.not1213, label %._crit_edge, label %.lr.ph

.lr.ph:                                           ; preds = %2, %14
  %.015 = phi i64 [ %.1, %14 ], [ 0, %2 ]
  %.sroa.06.014 = phi ptr [ %15, %14 ], [ %5, %2 ]
  call void @llvm.lifetime.start.p0(i64 16, ptr nonnull %3) #17
  call void @_ZN3net30QuicMultipathSentPacketManager25PathSentPacketManagerInfoC1ERKS1_(ptr noundef nonnull align 8 dereferenceable(12) %3, ptr noundef nonnull align 8 dereferenceable(12) %.sroa.06.014)
  %8 = load ptr, ptr %3, align 8, !tbaa !21
  %.not = icmp eq ptr %8, null
  br i1 %.not, label %14, label %9

9:                                                ; preds = %.lr.ph
  %10 = load ptr, ptr %8, align 8, !tbaa !3
  %11 = getelementptr inbounds nuw i8, ptr %10, i64 184
  %12 = load ptr, ptr %11, align 8
  %13 = call noundef i64 %12(ptr noundef nonnull align 8 dereferenceable(8) %8, i64 noundef %1)
  %.sroa.speculated = call i64 @llvm.umax.i64(i64 %.015, i64 %13)
  br label %14

14:                                               ; preds = %9, %.lr.ph
  %.1 = phi i64 [ %.015, %.lr.ph ], [ %.sroa.speculated, %9 ]
  call void @llvm.lifetime.end.p0(i64 16, ptr nonnull %3) #17
  %15 = getelementptr inbounds nuw i8, ptr %.sroa.06.014, i64 16
  %.not12 = icmp eq ptr %15, %7
  br i1 %.not12, label %._crit_edge, label %.lr.ph

._crit_edge:                                      ; preds = %14, %2
  %.0.lcssa = phi i64 [ 0, %2 ], [ %.1, %14 ]
  ret i64 %.0.lcssa
}